target datalayout = "e-m:e-p270:32:32-p271:32:32-p272:64:64-i64:64-i128:128-f80:128-n8:16:32:64-S128"
target triple = "x86_64-unknown-linux-gnu"

%"class.std::basic_string_view" = type { i64, ptr }
%"class.std::__cxx11::basic_string" = type { %"struct.std::__cxx11::basic_string<char>::_Alloc_hider", i64, %union.anon }
%"struct.std::__cxx11::basic_string<char>::_Alloc_hider" = type { ptr }
%union.anon = type { i64, [8 x i8] }
%"class.std::allocator.24" = type { i8 }
%"class.google::protobuf::compiler::DiskSourceTree" = type { %"class.google::protobuf::compiler::SourceTree", %"class.std::vector.70", %"class.std::__cxx11::basic_string" }
%"class.google::protobuf::compiler::SourceTree" = type { ptr }
%"class.std::vector.70" = type { %"struct.std::_Vector_base.71" }
%"struct.std::_Vector_base.71" = type { %"struct.std::_Vector_base<google::protobuf::compiler::DiskSourceTree::Mapping, std::allocator<google::protobuf::compiler::DiskSourceTree::Mapping>>::_Vector_impl" }
%"struct.std::_Vector_base<google::protobuf::compiler::DiskSourceTree::Mapping, std::allocator<google::protobuf::compiler::DiskSourceTree::Mapping>>::_Vector_impl" = type { %"struct.std::_Vector_base<google::protobuf::compiler::DiskSourceTree::Mapping, std::allocator<google::protobuf::compiler::DiskSourceTree::Mapping>>::_Vector_impl_data" }
%"struct.std::_Vector_base<google::protobuf::compiler::DiskSourceTree::Mapping, std::allocator<google::protobuf::compiler::DiskSourceTree::Mapping>>::_Vector_impl_data" = type { ptr, ptr, ptr }
%"struct.std::__cxx11::basic_string<char>::__sv_wrapper" = type { %"class.std::basic_string_view" }
%struct.stat = type { i64, i64, i64, i32, i32, i32, i32, i64, i64, i64, i64, %struct.timespec, %struct.timespec, %struct.timespec, [3 x i64] }
%struct.timespec = type { i64, i64 }
%"class.google::protobuf::io::FileInputStream" = type { %"class.google::protobuf::io::ZeroCopyInputStream", %"class.google::protobuf::io::FileInputStream::CopyingFileInputStream", %"class.google::protobuf::io::CopyingInputStreamAdaptor" }
%"class.google::protobuf::io::ZeroCopyInputStream" = type { ptr }
%"class.google::protobuf::io::FileInputStream::CopyingFileInputStream" = type <{ %"class.google::protobuf::io::CopyingInputStream", i32, i8, i8, [2 x i8], i32, i8, [3 x i8] }>
%"class.google::protobuf::io::CopyingInputStream" = type { ptr }
%"class.google::protobuf::io::CopyingInputStreamAdaptor" = type <{ %"class.google::protobuf::io::ZeroCopyInputStream", ptr, i8, i8, [6 x i8], i64, %"class.std::unique_ptr.75", i32, i32, i32, [4 x i8] }>
%"class.std::unique_ptr.75" = type { %"struct.std::__uniq_ptr_data.76" }
%"struct.std::__uniq_ptr_data.76" = type { %"class.std::__uniq_ptr_impl.77" }
%"class.std::__uniq_ptr_impl.77" = type { %"class.std::tuple.78" }
%"class.std::tuple.78" = type { %"struct.std::_Tuple_impl.79" }
%"struct.std::_Tuple_impl.79" = type { %"struct.std::_Head_base.82" }
%"struct.std::_Head_base.82" = type { ptr }

@.str.3 = private unnamed_addr constant [27 x i8] c"Input file is a directory.\00", align 1

; Function Attrs: mustprogress nounwind uwtable
define linkonce_odr hidden void @_ZN6google8protobuf2io15FileInputStream22CopyingFileInputStream16SetCloseOnDeleteEb(ptr noundef nonnull align 8 dereferenceable(24) %this, i1 noundef zeroext %value) #4 comdat align 2 {
entry:
  %this.addr = alloca ptr, align 8
  %value.addr = alloca i8, align 1
  store ptr %this, ptr %this.addr, align 8
  %frombool = zext i1 %value to i8
  store i8 %frombool, ptr %value.addr, align 1
  %this1 = load ptr, ptr %this.addr, align 8
  %0 = load i8, ptr %value.addr, align 1
  %tobool = trunc i8 %0 to i1
  %close_on_delete_ = getelementptr inbounds %"class.google::protobuf::io::FileInputStream::CopyingFileInputStream", ptr %this1, i32 0, i32 2
  %frombool2 = zext i1 %tobool to i8
  store i8 %frombool2, ptr %close_on_delete_, align 4
  ret void
}

; Function Attrs: mustprogress uwtable
define linkonce_odr hidden void @_ZN6google8protobuf2io15FileInputStream16SetCloseOnDeleteEb(ptr noundef nonnull align 8 dereferenceable(88) %this, i1 noundef zeroext %value) #6 comdat align 2 {
entry:
  %this.addr = alloca ptr, align 8
  %value.addr = alloca i8, align 1
  store ptr %this, ptr %this.addr, align 8
  %frombool = zext i1 %value to i8
  store i8 %frombool, ptr %value.addr, align 1
  %this1 = load ptr, ptr %this.addr, align 8
  %copying_input_ = getelementptr inbounds %"class.google::protobuf::io::FileInputStream", ptr %this1, i32 0, i32 1
  %0 = load i8, ptr %value.addr, align 1
  %tobool = trunc i8 %0 to i1
  call void @_ZN6google8protobuf2io15FileInputStream22CopyingFileInputStream16SetCloseOnDeleteEb(ptr noundef nonnull align 8 dereferenceable(24) %copying_input_, i1 noundef zeroext %tobool)
  ret void
}

; Function Attrs: mustprogress uwtable
define linkonce_odr hidden void @_ZNSt7__cxx1112basic_stringIcSt11char_traitsIcESaIcEEC2ISt17basic_string_viewIcS2_EvEERKT_RKS3_(ptr noundef nonnull align 8 dereferenceable(32) %this, ptr noundef nonnull align 8 dereferenceable(16) %__t, ptr noundef nonnull align 1 dereferenceable(1) %__a) unnamed_addr #6 comdat align 2 {
entry:
  %this.addr = alloca ptr, align 8
  %__t.addr = alloca ptr, align 8
  %__a.addr = alloca ptr, align 8
  %agg.tmp = alloca %"struct.std::__cxx11::basic_string<char>::__sv_wrapper", align 8
  %agg.tmp2 = alloca %"class.std::basic_string_view", align 8
  %agg.tmp3 = alloca %"class.std::basic_string_view", align 8
  store ptr %this, ptr %this.addr, align 8
  store ptr %__t, ptr %__t.addr, align 8
  store ptr %__a, ptr %__a.addr, align 8
  %this1 = load ptr, ptr %this.addr, align 8
  %0 = load ptr, ptr %__t.addr, align 8
  call void @llvm.memcpy.p0.p0.i64(ptr align 8 %agg.tmp3, ptr align 8 %0, i64 16, i1 false)
  %1 = getelementptr inbounds { i64, ptr }, ptr %agg.tmp3, i32 0, i32 0
  %2 = load i64, ptr %1, align 8
  %3 = getelementptr inbounds { i64, ptr }, ptr %agg.tmp3, i32 0, i32 1
  %4 = load ptr, ptr %3, align 8
  %call = call { i64, ptr } @_ZNSt7__cxx1112basic_stringIcSt11char_traitsIcESaIcEE17_S_to_string_viewESt17basic_string_viewIcS2_E(i64 %2, ptr %4) #3
  %5 = getelementptr inbounds { i64, ptr }, ptr %agg.tmp2, i32 0, i32 0
  %6 = extractvalue { i64, ptr } %call, 0
  store i64 %6, ptr %5, align 8
  %7 = getelementptr inbounds { i64, ptr }, ptr %agg.tmp2, i32 0, i32 1
  %8 = extractvalue { i64, ptr } %call, 1
  store ptr %8, ptr %7, align 8
  %9 = getelementptr inbounds { i64, ptr }, ptr %agg.tmp2, i32 0, i32 0
  %10 = load i64, ptr %9, align 8
  %11 = getelementptr inbounds { i64, ptr }, ptr %agg.tmp2, i32 0, i32 1
  %12 = load ptr, ptr %11, align 8
  call void @_ZNSt7__cxx1112basic_stringIcSt11char_traitsIcESaIcEE12__sv_wrapperC1ESt17basic_string_viewIcS2_E(ptr noundef nonnull align 8 dereferenceable(16) %agg.tmp, i64 %10, ptr %12) #3
  %13 = load ptr, ptr %__a.addr, align 8
  %14 = getelementptr inbounds { i64, ptr }, ptr %agg.tmp, i32 0, i32 0
  %15 = load i64, ptr %14, align 8
  %16 = getelementptr inbounds { i64, ptr }, ptr %agg.tmp, i32 0, i32 1
  %17 = load ptr, ptr %16, align 8
  call void @_ZNSt7__cxx1112basic_stringIcSt11char_traitsIcESaIcEEC2ENS4_12__sv_wrapperERKS3_(ptr noundef nonnull align 8 dereferenceable(32) %this1, i64 %15, ptr %17, ptr noundef nonnull align 1 dereferenceable(1) %13)
  ret void
}

; Function Attrs: mustprogress uwtable
define noundef ptr @_ZN6google8protobuf8compiler14DiskSourceTree12OpenDiskFileESt17basic_string_viewIcSt11char_traitsIcEE(ptr noundef nonnull align 8 dereferenceable(64) %this, i64 %filename.coerce0, ptr %filename.coerce1) #6 align 2 personality ptr @__gxx_personality_v0 {
entry:
  %retval = alloca ptr, align 8
  %filename = alloca %"class.std::basic_string_view", align 8
  %this.addr = alloca ptr, align 8
  %sb = alloca %struct.stat, align 8
  %ret = alloca i32, align 4
  %ref.tmp = alloca %"class.std::__cxx11::basic_string", align 8
  %ref.tmp2 = alloca %"class.std::allocator.24", align 1
  %exn.slot = alloca ptr, align 8
  %ehselector.slot = alloca i32, align 4
  %file_descriptor = alloca i32, align 4
  %ref.tmp10 = alloca %"class.std::__cxx11::basic_string", align 8
  %ref.tmp11 = alloca %"class.std::allocator.24", align 1
  %result = alloca ptr, align 8
  %0 = getelementptr inbounds { i64, ptr }, ptr %filename, i32 0, i32 0
  store i64 %filename.coerce0, ptr %0, align 8
  %1 = getelementptr inbounds { i64, ptr }, ptr %filename, i32 0, i32 1
  store ptr %filename.coerce1, ptr %1, align 8
  store ptr %this, ptr %this.addr, align 8
  %this1 = load ptr, ptr %this.addr, align 8
  store i32 0, ptr %ret, align 4
  br label %do.body

do.body:                                          ; preds = %land.end, %entry
  call void @_ZNSaIcEC1Ev(ptr noundef nonnull align 1 dereferenceable(1) %ref.tmp2) #3
  invoke void @_ZNSt7__cxx1112basic_stringIcSt11char_traitsIcESaIcEEC2ISt17basic_string_viewIcS2_EvEERKT_RKS3_(ptr noundef nonnull align 8 dereferenceable(32) %ref.tmp, ptr noundef nonnull align 8 dereferenceable(16) %filename, ptr noundef nonnull align 1 dereferenceable(1) %ref.tmp2)
          to label %invoke.cont unwind label %lpad

invoke.cont:                                      ; preds = %do.body
  %call = call noundef ptr @_ZNKSt7__cxx1112basic_stringIcSt11char_traitsIcESaIcEE5c_strEv(ptr noundef nonnull align 8 dereferenceable(32) %ref.tmp) #3
  %call3 = call i32 @stat(ptr noundef %call, ptr noundef %sb) #3
  store i32 %call3, ptr %ret, align 4
  call void @_ZNSt7__cxx1112basic_stringIcSt11char_traitsIcESaIcEED1Ev(ptr noundef nonnull align 8 dereferenceable(32) %ref.tmp) #3
  call void @_ZNSaIcED1Ev(ptr noundef nonnull align 1 dereferenceable(1) %ref.tmp2) #3
  br label %do.cond

do.cond:                                          ; preds = %invoke.cont
  %2 = load i32, ptr %ret, align 4
  %cmp = icmp ne i32 %2, 0
  br i1 %cmp, label %land.rhs, label %land.end

land.rhs:                                         ; preds = %do.cond
  %call4 = call ptr @__errno_location() #16
  %3 = load i32, ptr %call4, align 4
  %cmp5 = icmp eq i32 %3, 4
  br label %land.end

land.end:                                         ; preds = %land.rhs, %do.cond
  %4 = phi i1 [ false, %do.cond ], [ %cmp5, %land.rhs ]
  br i1 %4, label %do.body, label %do.end, !llvm.loop !7

do.end:                                           ; preds = %land.end
  %5 = load i32, ptr %ret, align 4
  %cmp6 = icmp eq i32 %5, 0
  br i1 %cmp6, label %land.lhs.true, label %if.end

land.lhs.true:                                    ; preds = %do.end
  %st_mode = getelementptr inbounds %struct.stat, ptr %sb, i32 0, i32 3
  %6 = load i32, ptr %st_mode, align 8
  %and = and i32 %6, 61440
  %cmp7 = icmp eq i32 %and, 16384
  br i1 %cmp7, label %if.then, label %if.end

if.then:                                          ; preds = %land.lhs.true
  %last_error_message_ = getelementptr inbounds %"class.google::protobuf::compiler::DiskSourceTree", ptr %this1, i32 0, i32 2
  %call8 = call noundef nonnull align 8 dereferenceable(32) ptr @_ZNSt7__cxx1112basic_stringIcSt11char_traitsIcESaIcEEaSEPKc(ptr noundef nonnull align 8 dereferenceable(32) %last_error_message_, ptr noundef @.str.3)
  store ptr null, ptr %retval, align 8
  br label %return

lpad:                                             ; preds = %do.body
  %7 = landingpad { ptr, i32 }
          cleanup
  %8 = extractvalue { ptr, i32 } %7, 0
  store ptr %8, ptr %exn.slot, align 8
  %9 = extractvalue { ptr, i32 } %7, 1
  store i32 %9, ptr %ehselector.slot, align 4
  call void @_ZNSaIcED1Ev(ptr noundef nonnull align 1 dereferenceable(1) %ref.tmp2) #3
  br label %eh.resume

if.end:                                           ; preds = %land.lhs.true, %do.end
  br label %do.body9

do.body9:                                         ; preds = %land.end23, %if.end
  call void @_ZNSaIcEC1Ev(ptr noundef nonnull align 1 dereferenceable(1) %ref.tmp11) #3
  invoke void @_ZNSt7__cxx1112basic_stringIcSt11char_traitsIcESaIcEEC2ISt17basic_string_viewIcS2_EvEERKT_RKS3_(ptr noundef nonnull align 8 dereferenceable(32) %ref.tmp10, ptr noundef nonnull align 8 dereferenceable(16) %filename, ptr noundef nonnull align 1 dereferenceable(1) %ref.tmp11)
          to label %invoke.cont13 unwind label %lpad12

invoke.cont13:                                    ; preds = %do.body9
  %call14 = call noundef ptr @_ZNKSt7__cxx1112basic_stringIcSt11char_traitsIcESaIcEE5c_strEv(ptr noundef nonnull align 8 dereferenceable(32) %ref.tmp10) #3
  %call17 = invoke i32 (ptr, i32, ...) @open(ptr noundef %call14, i32 noundef 0)
          to label %invoke.cont16 unwind label %lpad15

invoke.cont16:                                    ; preds = %invoke.cont13
  store i32 %call17, ptr %file_descriptor, align 4
  call void @_ZNSt7__cxx1112basic_stringIcSt11char_traitsIcESaIcEED1Ev(ptr noundef nonnull align 8 dereferenceable(32) %ref.tmp10) #3
  call void @_ZNSaIcED1Ev(ptr noundef nonnull align 1 dereferenceable(1) %ref.tmp11) #3
  br label %do.cond18

do.cond18:                                        ; preds = %invoke.cont16
  %10 = load i32, ptr %file_descriptor, align 4
  %cmp19 = icmp slt i32 %10, 0
  br i1 %cmp19, label %land.rhs20, label %land.end23

land.rhs20:                                       ; preds = %do.cond18
  %call21 = call ptr @__errno_location() #16
  %11 = load i32, ptr %call21, align 4
  %cmp22 = icmp eq i32 %11, 4
  br label %land.end23

land.end23:                                       ; preds = %land.rhs20, %do.cond18
  %12 = phi i1 [ false, %do.cond18 ], [ %cmp22, %land.rhs20 ]
  br i1 %12, label %do.body9, label %do.end24, !llvm.loop !8

do.end24:                                         ; preds = %land.end23
  %13 = load i32, ptr %file_descriptor, align 4
  %cmp25 = icmp sge i32 %13, 0
  br i1 %cmp25, label %if.then26, label %if.else

if.then26:                                        ; preds = %do.end24
  %call27 = call noalias noundef nonnull ptr @_Znwm(i64 noundef 88) #17
  %14 = load i32, ptr %file_descriptor, align 4
  invoke void @_ZN6google8protobuf2io15FileInputStreamC1Eii(ptr noundef nonnull align 8 dereferenceable(88) %call27, i32 noundef %14, i32 noundef -1)
          to label %invoke.cont29 unwind label %lpad28

invoke.cont29:                                    ; preds = %if.then26
  store ptr %call27, ptr %result, align 8
  %15 = load ptr, ptr %result, align 8
  call void @_ZN6google8protobuf2io15FileInputStream16SetCloseOnDeleteEb(ptr noundef nonnull align 8 dereferenceable(88) %15, i1 noundef zeroext true)
  %16 = load ptr, ptr %result, align 8
  store ptr %16, ptr %retval, align 8
  br label %return

lpad12:                                           ; preds = %do.body9
  %17 = landingpad { ptr, i32 }
          cleanup
  %18 = extractvalue { ptr, i32 } %17, 0
  store ptr %18, ptr %exn.slot, align 8
  %19 = extractvalue { ptr, i32 } %17, 1
  store i32 %19, ptr %ehselector.slot, align 4
  br label %ehcleanup

lpad15:                                           ; preds = %invoke.cont13
  %20 = landingpad { ptr, i32 }
          cleanup
  %21 = extractvalue { ptr, i32 } %20, 0
  store ptr %21, ptr %exn.slot, align 8
  %22 = extractvalue { ptr, i32 } %20, 1
  store i32 %22, ptr %ehselector.slot, align 4
  call void @_ZNSt7__cxx1112basic_stringIcSt11char_traitsIcESaIcEED1Ev(ptr noundef nonnull align 8 dereferenceable(32) %ref.tmp10) #3
  br label %ehcleanup

ehcleanup:                                        ; preds = %lpad15, %lpad12
  call void @_ZNSaIcED1Ev(ptr noundef nonnull align 1 dereferenceable(1) %ref.tmp11) #3
  br label %eh.resume

lpad28:                                           ; preds = %if.then26
  %23 = landingpad { ptr, i32 }
          cleanup
  %24 = extractvalue { ptr, i32 } %23, 0
  store ptr %24, ptr %exn.slot, align 8
  %25 = extractvalue { ptr, i32 } %23, 1
  store i32 %25, ptr %ehselector.slot, align 4
  call void @_ZdlPv(ptr noundef %call27) #14
  br label %eh.resume

if.else:                                          ; preds = %do.end24
  store ptr null, ptr %retval, align 8
  br label %return

return:                                           ; preds = %if.else, %invoke.cont29, %if.then
  %26 = load ptr, ptr %retval, align 8
  ret ptr %26

eh.resume:                                        ; preds = %lpad28, %ehcleanup, %lpad
  %exn = load ptr, ptr %exn.slot, align 8
  %sel = load i32, ptr %ehselector.slot, align 4
  %lpad.val = insertvalue { ptr, i32 } poison, ptr %exn, 0
  %lpad.val31 = insertvalue { ptr, i32 } %lpad.val, i32 %sel, 1
  resume { ptr, i32 } %lpad.val31
}