; Function Attrs: mustprogress uwtable
define noundef ptr @_ZN6google8protobuf8compiler14DiskSourceTree12OpenDiskFileESt17basic_string_viewIcSt11char_traitsIcEE(ptr noundef nonnull align 8 dereferenceable(64) %this, i64 %filename.coerce0, ptr %filename.coerce1) local_unnamed_addr #6 align 2 personality ptr @__gxx_personality_v0 {
entry:
  %agg.tmp.i8 = alloca %"struct.std::__cxx11::basic_string<char>::__sv_wrapper", align 8
  %agg.tmp.i = alloca %"struct.std::__cxx11::basic_string<char>::__sv_wrapper", align 8
  %sb = alloca %struct.stat, align 8
  %ref.tmp = alloca %"class.std::__cxx11::basic_string", align 8
  %ref.tmp2 = alloca %"class.std::allocator.24", align 1
  %ref.tmp10 = alloca %"class.std::__cxx11::basic_string", align 8
  %ref.tmp11 = alloca %"class.std::allocator.24", align 1
  %0 = getelementptr inbounds i8, ptr %agg.tmp.i, i64 8
  br label %do.body

do.body:                                          ; preds = %land.rhs, %entry
  call void @_ZNSaIcEC1Ev(ptr noundef nonnull align 1 dereferenceable(1) %ref.tmp2) #25
  call void @llvm.lifetime.start.p0(i64 16, ptr nonnull %agg.tmp.i)
  %call.i = call { i64, ptr } @_ZNSt7__cxx1112basic_stringIcSt11char_traitsIcESaIcEE17_S_to_string_viewESt17basic_string_viewIcS2_E(i64 %filename.coerce0, ptr %filename.coerce1) #25
  %1 = extractvalue { i64, ptr } %call.i, 0
  %2 = extractvalue { i64, ptr } %call.i, 1
  call void @_ZNSt7__cxx1112basic_stringIcSt11char_traitsIcESaIcEE12__sv_wrapperC1ESt17basic_string_viewIcS2_E(ptr noundef nonnull align 8 dereferenceable(16) %agg.tmp.i, i64 %1, ptr %2) #25
  %3 = load i64, ptr %agg.tmp.i, align 8
  %4 = load ptr, ptr %0, align 8
  invoke void @_ZNSt7__cxx1112basic_stringIcSt11char_traitsIcESaIcEEC2ENS4_12__sv_wrapperERKS3_(ptr noundef nonnull align 8 dereferenceable(32) %ref.tmp, i64 %3, ptr %4, ptr noundef nonnull align 1 dereferenceable(1) %ref.tmp2)
          to label %invoke.cont unwind label %lpad

invoke.cont:                                      ; preds = %do.body
  call void @llvm.lifetime.end.p0(i64 16, ptr nonnull %agg.tmp.i)
  %call = call noundef ptr @_ZNKSt7__cxx1112basic_stringIcSt11char_traitsIcESaIcEE5c_strEv(ptr noundef nonnull align 8 dereferenceable(32) %ref.tmp) #25
  %call3 = call i32 @stat(ptr noundef %call, ptr noundef nonnull %sb) #25
  call void @_ZNSt7__cxx1112basic_stringIcSt11char_traitsIcESaIcEED1Ev(ptr noundef nonnull align 8 dereferenceable(32) %ref.tmp) #25
  call void @_ZNSaIcED1Ev(ptr noundef nonnull align 1 dereferenceable(1) %ref.tmp2) #25
  %cond = icmp eq i32 %call3, 0
  br i1 %cond, label %land.lhs.true, label %land.rhs

land.rhs:                                         ; preds = %invoke.cont
  %call4 = tail call ptr @__errno_location() #29
  %5 = load i32, ptr %call4, align 4
  %cmp5 = icmp eq i32 %5, 4
  br i1 %cmp5, label %do.body, label %if.end, !llvm.loop !34

land.lhs.true:                                    ; preds = %invoke.cont
  %st_mode = getelementptr inbounds i8, ptr %sb, i64 24
  %6 = load i32, ptr %st_mode, align 8
  %and = and i32 %6, 61440
  %cmp7 = icmp eq i32 %and, 16384
  br i1 %cmp7, label %if.then, label %if.end

if.then:                                          ; preds = %land.lhs.true
  %last_error_message_ = getelementptr inbounds i8, ptr %this, i64 32
  %call8 = call noundef nonnull align 8 dereferenceable(32) ptr @_ZNSt7__cxx1112basic_stringIcSt11char_traitsIcESaIcEEaSEPKc(ptr noundef nonnull align 8 dereferenceable(32) %last_error_message_, ptr noundef nonnull @.str.3)
  br label %return

lpad:                                             ; preds = %do.body
  %7 = landingpad { ptr, i32 }
          cleanup
  call void @_ZNSaIcED1Ev(ptr noundef nonnull align 1 dereferenceable(1) %ref.tmp2) #25
  br label %eh.resume

if.end:                                           ; preds = %land.rhs, %land.lhs.true
  %8 = getelementptr inbounds i8, ptr %agg.tmp.i8, i64 8
  br label %do.body9

do.body9:                                         ; preds = %land.rhs20, %if.end
  call void @_ZNSaIcEC1Ev(ptr noundef nonnull align 1 dereferenceable(1) %ref.tmp11) #25
  call void @llvm.lifetime.start.p0(i64 16, ptr nonnull %agg.tmp.i8)
  %call.i12 = call { i64, ptr } @_ZNSt7__cxx1112basic_stringIcSt11char_traitsIcESaIcEE17_S_to_string_viewESt17basic_string_viewIcS2_E(i64 %filename.coerce0, ptr %filename.coerce1) #25
  %9 = extractvalue { i64, ptr } %call.i12, 0
  %10 = extractvalue { i64, ptr } %call.i12, 1
  call void @_ZNSt7__cxx1112basic_stringIcSt11char_traitsIcESaIcEE12__sv_wrapperC1ESt17basic_string_viewIcS2_E(ptr noundef nonnull align 8 dereferenceable(16) %agg.tmp.i8, i64 %9, ptr %10) #25
  %11 = load i64, ptr %agg.tmp.i8, align 8
  %12 = load ptr, ptr %8, align 8
  invoke void @_ZNSt7__cxx1112basic_stringIcSt11char_traitsIcESaIcEEC2ENS4_12__sv_wrapperERKS3_(ptr noundef nonnull align 8 dereferenceable(32) %ref.tmp10, i64 %11, ptr %12, ptr noundef nonnull align 1 dereferenceable(1) %ref.tmp11)
          to label %invoke.cont13 unwind label %lpad12

invoke.cont13:                                    ; preds = %do.body9
  call void @llvm.lifetime.end.p0(i64 16, ptr nonnull %agg.tmp.i8)
  %call14 = call noundef ptr @_ZNKSt7__cxx1112basic_stringIcSt11char_traitsIcESaIcEE5c_strEv(ptr noundef nonnull align 8 dereferenceable(32) %ref.tmp10) #25
  %call17 = invoke i32 (ptr, i32, ...) @open(ptr noundef %call14, i32 noundef 0)
          to label %invoke.cont16 unwind label %lpad15

invoke.cont16:                                    ; preds = %invoke.cont13
  call void @_ZNSt7__cxx1112basic_stringIcSt11char_traitsIcESaIcEED1Ev(ptr noundef nonnull align 8 dereferenceable(32) %ref.tmp10) #25
  call void @_ZNSaIcED1Ev(ptr noundef nonnull align 1 dereferenceable(1) %ref.tmp11) #25
  %cmp19 = icmp slt i32 %call17, 0
  br i1 %cmp19, label %land.rhs20, label %if.then26

land.rhs20:                                       ; preds = %invoke.cont16
  %call21 = tail call ptr @__errno_location() #29
  %13 = load i32, ptr %call21, align 4
  %cmp22 = icmp eq i32 %13, 4
  br i1 %cmp22, label %do.body9, label %return, !llvm.loop !35

if.then26:                                        ; preds = %invoke.cont16
  %call27 = call noalias noundef nonnull dereferenceable(88) ptr @_Znwm(i64 noundef 88) #27
  invoke void @_ZN6google8protobuf2io15FileInputStreamC1Eii(ptr noundef nonnull align 8 dereferenceable(88) %call27, i32 noundef %call17, i32 noundef -1)
          to label %invoke.cont29 unwind label %lpad28

invoke.cont29:                                    ; preds = %if.then26
  %close_on_delete_.i.i = getelementptr inbounds i8, ptr %call27, i64 20
  store i8 1, ptr %close_on_delete_.i.i, align 4
  br label %return

lpad12:                                           ; preds = %do.body9
  %14 = landingpad { ptr, i32 }
          cleanup
  br label %ehcleanup

lpad15:                                           ; preds = %invoke.cont13
  %15 = landingpad { ptr, i32 }
          cleanup
  call void @_ZNSt7__cxx1112basic_stringIcSt11char_traitsIcESaIcEED1Ev(ptr noundef nonnull align 8 dereferenceable(32) %ref.tmp10) #25
  br label %ehcleanup

ehcleanup:                                        ; preds = %lpad15, %lpad12
  %.pn = phi { ptr, i32 } [ %15, %lpad15 ], [ %14, %lpad12 ]
  call void @_ZNSaIcED1Ev(ptr noundef nonnull align 1 dereferenceable(1) %ref.tmp11) #25
  br label %eh.resume

lpad28:                                           ; preds = %if.then26
  %16 = landingpad { ptr, i32 }
          cleanup
  call void @_ZdlPv(ptr noundef nonnull %call27) #26
  br label %eh.resume

return:                                           ; preds = %land.rhs20, %invoke.cont29, %if.then
  %retval.0 = phi ptr [ null, %if.then ], [ %call27, %invoke.cont29 ], [ null, %land.rhs20 ]
  ret ptr %retval.0

eh.resume:                                        ; preds = %lpad28, %ehcleanup, %lpad
  %.pn6 = phi { ptr, i32 } [ %16, %lpad28 ], [ %.pn, %ehcleanup ], [ %7, %lpad ]
  resume { ptr, i32 } %.pn6
}